target datalayout = "e-m:e-p270:32:32-p271:32:32-p272:64:64-i64:64-i128:128-f80:128-n8:16:32:64-S128"
target triple = "x86_64-pc-linux-gnu"

%struct.H5D_chk_idx_info_t = type { ptr, ptr, ptr, ptr }
%struct.H5O_storage_chunk_t = type { i32, i64, ptr, %union.anon }
%union.anon = type { %struct.H5O_storage_chunk_btree_t }
%struct.H5O_storage_chunk_btree_t = type { i64, ptr }
%struct.H5D_chunk_common_ud_t = type { ptr, ptr, ptr }
%struct.H5D_btree_it_ud_t = type { %struct.H5D_chunk_common_ud_t, ptr, ptr }

@H5D_init_g = external global i8, align 1
@H5_libterm_g = external global i8, align 1
@.str = private unnamed_addr constant [102 x i8] c"generated/home/dtcxzyw/WorkSpace/Projects/compilers/llvm-opt-benchmark/bench/hdf5/hdf5/src/H5Dbtree.c\00", align 1
@H5E_DATASET_g = external global i64, align 8
@__func__.H5D__btree_idx_iterate = private unnamed_addr constant [23 x i8] c"H5D__btree_idx_iterate\00", align 1
@H5E_BADITER_g = external global i64, align 8
@.str.8 = private unnamed_addr constant [36 x i8] c"unable to iterate over chunk B-tree\00", align 1

; Function Attrs: nounwind uwtable
define internal i32 @H5D__btree_idx_iterate(ptr noundef %0, ptr noundef %1, ptr noundef %2) #0 {
  %4 = alloca ptr, align 8
  %5 = alloca ptr, align 8
  %6 = alloca ptr, align 8
  %7 = alloca %struct.H5D_btree_it_ud_t, align 8
  %8 = alloca i32, align 4
  store ptr %0, ptr %4, align 8, !tbaa !3
  store ptr %1, ptr %5, align 8, !tbaa !41
  store ptr %2, ptr %6, align 8, !tbaa !41
  call void @llvm.lifetime.start.p0(i64 40, ptr %7) #8
  call void @llvm.lifetime.start.p0(i64 4, ptr %8) #8
  store i32 -1, ptr %8, align 4, !tbaa !12
  %9 = load i8, ptr @H5D_init_g, align 1, !tbaa !14, !range !16, !noundef !17
  %10 = trunc i8 %9 to i1
  br i1 %10, label %15, label %11

11:                                               ; preds = %3
  %12 = load i8, ptr @H5_libterm_g, align 1, !tbaa !14, !range !16, !noundef !17
  %13 = trunc i8 %12 to i1
  %14 = xor i1 %13, true
  br label %15

15:                                               ; preds = %11, %3
  %16 = phi i1 [ true, %3 ], [ %14, %11 ]
  %17 = xor i1 %16, true
  %18 = xor i1 %17, true
  %19 = zext i1 %18 to i32
  %20 = sext i32 %19 to i64
  %21 = call i64 @llvm.expect.i64(i64 %20, i64 1)
  %22 = icmp ne i64 %21, 0
  br i1 %22, label %23, label %56

23:                                               ; preds = %15
  call void @llvm.memset.p0.i64(ptr align 8 %7, i8 0, i64 40, i1 false)
  %24 = load ptr, ptr %4, align 8, !tbaa !3
  %25 = getelementptr inbounds nuw %struct.H5D_chk_idx_info_t, ptr %24, i32 0, i32 2
  %26 = load ptr, ptr %25, align 8, !tbaa !26
  %27 = getelementptr inbounds nuw %struct.H5D_btree_it_ud_t, ptr %7, i32 0, i32 0
  %28 = getelementptr inbounds nuw %struct.H5D_chunk_common_ud_t, ptr %27, i32 0, i32 0
  store ptr %26, ptr %28, align 8, !tbaa !42
  %29 = load ptr, ptr %4, align 8, !tbaa !3
  %30 = getelementptr inbounds nuw %struct.H5D_chk_idx_info_t, ptr %29, i32 0, i32 3
  %31 = load ptr, ptr %30, align 8, !tbaa !18
  %32 = getelementptr inbounds nuw %struct.H5D_btree_it_ud_t, ptr %7, i32 0, i32 0
  %33 = getelementptr inbounds nuw %struct.H5D_chunk_common_ud_t, ptr %32, i32 0, i32 1
  store ptr %31, ptr %33, align 8, !tbaa !44
  %34 = load ptr, ptr %5, align 8, !tbaa !41
  %35 = getelementptr inbounds nuw %struct.H5D_btree_it_ud_t, ptr %7, i32 0, i32 1
  store ptr %34, ptr %35, align 8, !tbaa !45
  %36 = load ptr, ptr %6, align 8, !tbaa !41
  %37 = getelementptr inbounds nuw %struct.H5D_btree_it_ud_t, ptr %7, i32 0, i32 2
  store ptr %36, ptr %37, align 8, !tbaa !46
  %38 = load ptr, ptr %4, align 8, !tbaa !3
  %39 = getelementptr inbounds nuw %struct.H5D_chk_idx_info_t, ptr %38, i32 0, i32 0
  %40 = load ptr, ptr %39, align 8, !tbaa !25
  %41 = load ptr, ptr %4, align 8, !tbaa !3
  %42 = getelementptr inbounds nuw %struct.H5D_chk_idx_info_t, ptr %41, i32 0, i32 3
  %43 = load ptr, ptr %42, align 8, !tbaa !18
  %44 = getelementptr inbounds nuw %struct.H5O_storage_chunk_t, ptr %43, i32 0, i32 1
  %45 = load i64, ptr %44, align 8, !tbaa !34
  %46 = call i32 @H5B_iterate(ptr noundef %40, ptr noundef @H5B_BTREE, i64 noundef %45, ptr noundef @H5D__btree_idx_iterate_cb, ptr noundef %7)
  store i32 %46, ptr %8, align 4, !tbaa !12
  %47 = icmp slt i32 %46, 0
  br i1 %47, label %48, label %55

48:                                               ; preds = %23
  br label %49

49:                                               ; preds = %48
  %50 = load i64, ptr @H5E_DATASET_g, align 8, !tbaa !10
  %51 = load i64, ptr @H5E_BADITER_g, align 8, !tbaa !10
  %52 = call i32 (ptr, ptr, i32, i64, i64, ptr, ...) @H5E_printf_stack(ptr noundef @.str, ptr noundef @__func__.H5D__btree_idx_iterate, i32 noundef 1133, i64 noundef %50, i64 noundef %51, ptr noundef @.str.8)
  br label %53

53:                                               ; preds = %49
  br label %54

54:                                               ; preds = %53
  br label %55

55:                                               ; preds = %54, %23
  br label %56

56:                                               ; preds = %55, %15
  %57 = load i32, ptr %8, align 4, !tbaa !12
  call void @llvm.lifetime.end.p0(i64 4, ptr %8) #8
  call void @llvm.lifetime.end.p0(i64 40, ptr %7) #8
  ret i32 %57
}