; Function Attrs: nounwind uwtable
define internal i32 @H5D__btree_idx_iterate(ptr noundef readonly captures(none) %0, ptr noundef %1, ptr noundef %2) #0 {
  %4 = alloca %struct.H5D_btree_it_ud_t, align 8
  call void @llvm.lifetime.start.p0(i64 40, ptr nonnull %4) #15
  %5 = load i8, ptr @H5D_init_g, align 1, !tbaa !3, !range !7, !noundef !8
  %6 = trunc nuw i8 %5 to i1
  %7 = load i8, ptr @H5_libterm_g, align 1, !range !7
  %8 = trunc nuw i8 %7 to i1
  %9 = xor i1 %8, true
  %10 = select i1 %6, i1 true, i1 %9
  br i1 %10, label %11, label %29, !prof !9

11:                                               ; preds = %3
  %12 = getelementptr inbounds nuw i8, ptr %4, i64 16
  store i64 0, ptr %12, align 8
  %13 = getelementptr inbounds nuw i8, ptr %0, i64 16
  %14 = load ptr, ptr %13, align 8, !tbaa !19
  store ptr %14, ptr %4, align 8, !tbaa !30
  %15 = getelementptr inbounds nuw i8, ptr %0, i64 24
  %16 = load ptr, ptr %15, align 8, !tbaa !10
  %17 = getelementptr inbounds nuw i8, ptr %4, i64 8
  store ptr %16, ptr %17, align 8, !tbaa !32
  %18 = getelementptr inbounds nuw i8, ptr %4, i64 24
  store ptr %1, ptr %18, align 8, !tbaa !33
  %19 = getelementptr inbounds nuw i8, ptr %4, i64 32
  store ptr %2, ptr %19, align 8, !tbaa !34
  %20 = load ptr, ptr %0, align 8, !tbaa !18
  %21 = getelementptr inbounds nuw i8, ptr %16, i64 8
  %22 = load i64, ptr %21, align 8, !tbaa !26
  %23 = call i32 @H5B_iterate(ptr noundef %20, ptr noundef nonnull @H5B_BTREE, i64 noundef %22, ptr noundef nonnull @H5D__btree_idx_iterate_cb, ptr noundef nonnull %4) #15
  %24 = icmp slt i32 %23, 0
  br i1 %24, label %25, label %29

25:                                               ; preds = %11
  %26 = load i64, ptr @H5E_DATASET_g, align 8, !tbaa !20
  %27 = load i64, ptr @H5E_BADITER_g, align 8, !tbaa !20
  %28 = call i32 (ptr, ptr, i32, i64, i64, ptr, ...) @H5E_printf_stack(ptr noundef nonnull @.str, ptr noundef nonnull @__func__.H5D__btree_idx_iterate, i32 noundef 1133, i64 noundef %26, i64 noundef %27, ptr noundef nonnull @.str.8) #15
  br label %29

29:                                               ; preds = %11, %25, %3
  %.0 = phi i32 [ %23, %25 ], [ %23, %11 ], [ -1, %3 ]
  call void @llvm.lifetime.end.p0(i64 40, ptr nonnull %4) #15
  ret i32 %.0
}